target datalayout = "e-m:e-p270:32:32-p271:32:32-p272:64:64-i64:64-f80:128-n8:16:32:64-S128"
target triple = "x86_64-pc-linux-gnu"

@.str = private unnamed_addr constant [9 x i8] c"%s %s %s\00", align 1
@.str.1 = private unnamed_addr constant [3 x i8] c"%s\00", align 1

; Function Attrs: noinline nounwind uwtable
define dso_local i32 @main() #0 {
  %1 = alloca i32, align 4
  %2 = alloca [500 x i8], align 16
  %3 = alloca [500 x i8], align 16
  %4 = alloca [500 x i8], align 16
  %5 = alloca i32, align 4
  %6 = alloca i32, align 4
  %7 = alloca i32, align 4
  %8 = alloca i32, align 4
  %9 = alloca i32, align 4
  %10 = alloca i32, align 4
  %11 = alloca i32, align 4
  %12 = alloca i32, align 4
  store i32 0, i32* %1, align 4
  %13 = getelementptr inbounds [500 x i8], [500 x i8]* %2, i64 0, i64 0
  %14 = getelementptr inbounds [500 x i8], [500 x i8]* %3, i64 0, i64 0
  %15 = getelementptr inbounds [500 x i8], [500 x i8]* %4, i64 0, i64 0
  %16 = call i32 (i8*, ...) @__isoc99_scanf(i8* getelementptr inbounds ([9 x i8], [9 x i8]* @.str, i64 0, i64 0), i8* %13, i8* %14, i8* %15)
  %17 = getelementptr inbounds [500 x i8], [500 x i8]* %2, i64 0, i64 0
  %18 = call i64 @strlen(i8* %17) #3
  %19 = trunc i64 %18 to i32
  store i32 %19, i32* %10, align 4
  %20 = getelementptr inbounds [500 x i8], [500 x i8]* %3, i64 0, i64 0
  %21 = call i64 @strlen(i8* %20) #3
  %22 = trunc i64 %21 to i32
  store i32 %22, i32* %11, align 4
  %23 = getelementptr inbounds [500 x i8], [500 x i8]* %4, i64 0, i64 0
  %24 = call i64 @strlen(i8* %23) #3
  %25 = trunc i64 %24 to i32
  store i32 %25, i32* %12, align 4
  store i32 0, i32* %5, align 4
  br label %26

26:                                               ; preds = %66, %0
  %27 = load i32, i32* %5, align 4
  %28 = load i32, i32* %10, align 4
  %29 = load i32, i32* %11, align 4
  %30 = sub nsw i32 %28, %29
  %31 = icmp sle i32 %27, %30
  br i1 %31, label %32, label %69

32:                                               ; preds = %26
  store i32 0, i32* %6, align 4
  br label %33

33:                                               ; preds = %53, %32
  %34 = load i32, i32* %6, align 4
  %35 = load i32, i32* %11, align 4
  %36 = icmp slt i32 %34, %35
  br i1 %36, label %37, label %56

37:                                               ; preds = %33
  %38 = load i32, i32* %5, align 4
  %39 = load i32, i32* %6, align 4
  %40 = add nsw i32 %38, %39
  %41 = sext i32 %40 to i64
  %42 = getelementptr inbounds [500 x i8], [500 x i8]* %2, i64 0, i64 %41
  %43 = load i8, i8* %42, align 1
  %44 = sext i8 %43 to i32
  %45 = load i32, i32* %6, align 4
  %46 = sext i32 %45 to i64
  %47 = getelementptr inbounds [500 x i8], [500 x i8]* %3, i64 0, i64 %46
  %48 = load i8, i8* %47, align 1
  %49 = sext i8 %48 to i32
  %50 = icmp ne i32 %44, %49
  br i1 %50, label %51, label %52

51:                                               ; preds = %37
  br label %56

52:                                               ; preds = %37
  br label %53

53:                                               ; preds = %52
  %54 = load i32, i32* %6, align 4
  %55 = add nsw i32 %54, 1
  store i32 %55, i32* %6, align 4
  br label %33

56:                                               ; preds = %51, %33
  %57 = load i32, i32* %6, align 4
  %58 = load i32, i32* %11, align 4
  %59 = icmp eq i32 %57, %58
  br i1 %59, label %60, label %65

60:                                               ; preds = %56
  %61 = load i32, i32* %5, align 4
  store i32 %61, i32* %7, align 4
  %62 = load i32, i32* %5, align 4
  %63 = load i32, i32* %6, align 4
  %64 = add nsw i32 %62, %63
  store i32 %64, i32* %8, align 4
  br label %69

65:                                               ; preds = %56
  br label %66

66:                                               ; preds = %65
  %67 = load i32, i32* %5, align 4
  %68 = add nsw i32 %67, 1
  store i32 %68, i32* %5, align 4
  br label %26

69:                                               ; preds = %60, %26
  %70 = load i32, i32* %6, align 4
  %71 = load i32, i32* %11, align 4
  %72 = icmp ne i32 %70, %71
  br i1 %72, label %73, label %76

73:                                               ; preds = %69
  %74 = getelementptr inbounds [500 x i8], [500 x i8]* %2, i64 0, i64 0
  %75 = call i32 (i8*, ...) @printf(i8* getelementptr inbounds ([3 x i8], [3 x i8]* @.str.1, i64 0, i64 0), i8* %74)
  br label %178

76:                                               ; preds = %69
  %77 = load i32, i32* %11, align 4
  %78 = load i32, i32* %12, align 4
  %79 = icmp sge i32 %77, %78
  br i1 %79, label %80, label %128

80:                                               ; preds = %76
  %81 = load i32, i32* %7, align 4
  store i32 %81, i32* %5, align 4
  store i32 0, i32* %6, align 4
  br label %82

82:                                               ; preds = %97, %80
  %83 = load i32, i32* %6, align 4
  %84 = sext i32 %83 to i64
  %85 = getelementptr inbounds [500 x i8], [500 x i8]* %4, i64 0, i64 %84
  %86 = load i8, i8* %85, align 1
  %87 = sext i8 %86 to i32
  %88 = icmp ne i32 %87, 0
  br i1 %88, label %89, label %102

89:                                               ; preds = %82
  %90 = load i32, i32* %6, align 4
  %91 = sext i32 %90 to i64
  %92 = getelementptr inbounds [500 x i8], [500 x i8]* %4, i64 0, i64 %91
  %93 = load i8, i8* %92, align 1
  %94 = load i32, i32* %5, align 4
  %95 = sext i32 %94 to i64
  %96 = getelementptr inbounds [500 x i8], [500 x i8]* %2, i64 0, i64 %95
  store i8 %93, i8* %96, align 1
  br label %97

97:                                               ; preds = %89
  %98 = load i32, i32* %5, align 4
  %99 = add nsw i32 %98, 1
  store i32 %99, i32* %5, align 4
  %100 = load i32, i32* %6, align 4
  %101 = add nsw i32 %100, 1
  store i32 %101, i32* %6, align 4
  br label %82

102:                                              ; preds = %82
  %103 = load i32, i32* %8, align 4
  store i32 %103, i32* %9, align 4
  br label %104

104:                                              ; preds = %119, %102
  %105 = load i32, i32* %9, align 4
  %106 = sext i32 %105 to i64
  %107 = getelementptr inbounds [500 x i8], [500 x i8]* %2, i64 0, i64 %106
  %108 = load i8, i8* %107, align 1
  %109 = sext i8 %108 to i32
  %110 = icmp ne i32 %109, 0
  br i1 %110, label %111, label %124

111:                                              ; preds = %104
  %112 = load i32, i32* %9, align 4
  %113 = sext i32 %112 to i64
  %114 = getelementptr inbounds [500 x i8], [500 x i8]* %2, i64 0, i64 %113
  %115 = load i8, i8* %114, align 1
  %116 = load i32, i32* %5, align 4
  %117 = sext i32 %116 to i64
  %118 = getelementptr inbounds [500 x i8], [500 x i8]* %2, i64 0, i64 %117
  store i8 %115, i8* %118, align 1
  br label %119

119:                                              ; preds = %111
  %120 = load i32, i32* %9, align 4
  %121 = add nsw i32 %120, 1
  store i32 %121, i32* %9, align 4
  %122 = load i32, i32* %5, align 4
  %123 = add nsw i32 %122, 1
  store i32 %123, i32* %5, align 4
  br label %104

124:                                              ; preds = %104
  %125 = load i32, i32* %5, align 4
  %126 = sext i32 %125 to i64
  %127 = getelementptr inbounds [500 x i8], [500 x i8]* %2, i64 0, i64 %126
  store i8 0, i8* %127, align 1
  br label %175

128:                                              ; preds = %76
  %129 = load i32, i32* %10, align 4
  %130 = load i32, i32* %12, align 4
  %131 = add nsw i32 %129, %130
  %132 = load i32, i32* %11, align 4
  %133 = sub nsw i32 %131, %132
  store i32 %133, i32* %5, align 4
  %134 = load i32, i32* %10, align 4
  store i32 %134, i32* %9, align 4
  br label %135

135:                                              ; preds = %147, %128
  %136 = load i32, i32* %9, align 4
  %137 = load i32, i32* %8, align 4
  %138 = icmp sge i32 %136, %137
  br i1 %138, label %139, label %152

139:                                              ; preds = %135
  %140 = load i32, i32* %9, align 4
  %141 = sext i32 %140 to i64
  %142 = getelementptr inbounds [500 x i8], [500 x i8]* %2, i64 0, i64 %141
  %143 = load i8, i8* %142, align 1
  %144 = load i32, i32* %5, align 4
  %145 = sext i32 %144 to i64
  %146 = getelementptr inbounds [500 x i8], [500 x i8]* %2, i64 0, i64 %145
  store i8 %143, i8* %146, align 1
  br label %147

147:                                              ; preds = %139
  %148 = load i32, i32* %9, align 4
  %149 = add nsw i32 %148, -1
  store i32 %149, i32* %9, align 4
  %150 = load i32, i32* %5, align 4
  %151 = add nsw i32 %150, -1
  store i32 %151, i32* %5, align 4
  br label %135

152:                                              ; preds = %135
  %153 = load i32, i32* %7, align 4
  store i32 %153, i32* %9, align 4
  store i32 0, i32* %6, align 4
  br label %154

154:                                              ; preds = %169, %152
  %155 = load i32, i32* %6, align 4
  %156 = sext i32 %155 to i64
  %157 = getelementptr inbounds [500 x i8], [500 x i8]* %4, i64 0, i64 %156
  %158 = load i8, i8* %157, align 1
  %159 = sext i8 %158 to i32
  %160 = icmp ne i32 %159, 0
  br i1 %160, label %161, label %174

161:                                              ; preds = %154
  %162 = load i32, i32* %6, align 4
  %163 = sext i32 %162 to i64
  %164 = getelementptr inbounds [500 x i8], [500 x i8]* %4, i64 0, i64 %163
  %165 = load i8, i8* %164, align 1
  %166 = load i32, i32* %9, align 4
  %167 = sext i32 %166 to i64
  %168 = getelementptr inbounds [500 x i8], [500 x i8]* %2, i64 0, i64 %167
  store i8 %165, i8* %168, align 1
  br label %169

169:                                              ; preds = %161
  %170 = load i32, i32* %9, align 4
  %171 = add nsw i32 %170, 1
  store i32 %171, i32* %9, align 4
  %172 = load i32, i32* %6, align 4
  %173 = add nsw i32 %172, 1
  store i32 %173, i32* %6, align 4
  br label %154

174:                                              ; preds = %154
  br label %175

175:                                              ; preds = %174, %124
  %176 = getelementptr inbounds [500 x i8], [500 x i8]* %2, i64 0, i64 0
  %177 = call i32 (i8*, ...) @printf(i8* getelementptr inbounds ([3 x i8], [3 x i8]* @.str.1, i64 0, i64 0), i8* %176)
  br label %178

178:                                              ; preds = %175, %73
  ret i32 0
}